target datalayout = "e-m:e-p270:32:32-p271:32:32-p272:64:64-i64:64-i128:128-f80:128-n8:16:32:64-S128"
target triple = "x86_64-pc-linux-gnu"

%struct.AVFormatContext = type { ptr, ptr, ptr, ptr, ptr, i32, i32, ptr, i32, ptr, i32, ptr, ptr, i64, i64, i64, i32, i32, i32, i64, i64, ptr, i32, i32, ptr, i32, i32, i32, i32, ptr, i64, i32, i32, %struct.AVIOInterruptCB, i32, i32, i32, i32, i64, i32, i32, i32, i32, i32, i32, i32, i32, i32, i32, i32, i32, i64, i32, i32, i32, i32, i32, ptr, ptr, ptr, ptr, i32, ptr, ptr, ptr, ptr, i32, ptr, ptr, i64, ptr, ptr, ptr, i64 }
%struct.AVIOInterruptCB = type { ptr, ptr }
%struct.MatroskaMuxContext = type { ptr, ptr, i32, %struct.ebml_stored_master, %struct.ebml_stored_master, %struct.ebml_stored_master, i64, ptr, i64, i64, i64, i64, ptr, %struct.mkv_seekhead, %struct.mkv_cues, i64, %struct.BlockContext, ptr, ptr, i32, i32, i32, i32, i32, i32, i64, i32, i32, i32, i32, i32, i32, i32, i32, [4 x i32] }
%struct.ebml_stored_master = type { ptr, i64 }
%struct.mkv_seekhead = type { i64, [7 x %struct.mkv_seekhead_entry], i32, i32 }
%struct.mkv_seekhead_entry = type { i32, i64 }
%struct.mkv_cues = type { ptr, i32 }
%struct.BlockContext = type { ptr, ptr, i16, i8, %struct.NALUList }
%struct.NALUList = type { ptr, i32, i32 }

; Function Attrs: nounwind uwtable
define internal void @mkv_deinit(ptr noundef %0) #0 {
  %2 = alloca ptr, align 8
  %3 = alloca ptr, align 8
  store ptr %0, ptr %2, align 8, !tbaa !4
  call void @llvm.lifetime.start.p0(i64 8, ptr %3) #16
  %4 = load ptr, ptr %2, align 8, !tbaa !4
  %5 = getelementptr inbounds nuw %struct.AVFormatContext, ptr %4, i32 0, i32 3
  %6 = load ptr, ptr %5, align 8, !tbaa !9
  store ptr %6, ptr %3, align 8, !tbaa !26
  %7 = load ptr, ptr %3, align 8, !tbaa !26
  %8 = getelementptr inbounds nuw %struct.MatroskaMuxContext, ptr %7, i32 0, i32 7
  call void @ffio_free_dyn_buf(ptr noundef %8)
  %9 = load ptr, ptr %3, align 8, !tbaa !26
  %10 = getelementptr inbounds nuw %struct.MatroskaMuxContext, ptr %9, i32 0, i32 3
  %11 = getelementptr inbounds nuw %struct.ebml_stored_master, ptr %10, i32 0, i32 0
  call void @ffio_free_dyn_buf(ptr noundef %11)
  %12 = load ptr, ptr %3, align 8, !tbaa !26
  %13 = getelementptr inbounds nuw %struct.MatroskaMuxContext, ptr %12, i32 0, i32 4
  %14 = getelementptr inbounds nuw %struct.ebml_stored_master, ptr %13, i32 0, i32 0
  call void @ffio_free_dyn_buf(ptr noundef %14)
  %15 = load ptr, ptr %3, align 8, !tbaa !26
  %16 = getelementptr inbounds nuw %struct.MatroskaMuxContext, ptr %15, i32 0, i32 5
  %17 = getelementptr inbounds nuw %struct.ebml_stored_master, ptr %16, i32 0, i32 0
  call void @ffio_free_dyn_buf(ptr noundef %17)
  %18 = load ptr, ptr %3, align 8, !tbaa !26
  %19 = getelementptr inbounds nuw %struct.MatroskaMuxContext, ptr %18, i32 0, i32 17
  call void @ffio_free_dyn_buf(ptr noundef %19)
  %20 = load ptr, ptr %3, align 8, !tbaa !26
  %21 = getelementptr inbounds nuw %struct.MatroskaMuxContext, ptr %20, i32 0, i32 16
  %22 = getelementptr inbounds nuw %struct.BlockContext, ptr %21, i32 0, i32 4
  %23 = getelementptr inbounds nuw %struct.NALUList, ptr %22, i32 0, i32 0
  call void @av_freep(ptr noundef %23)
  %24 = load ptr, ptr %3, align 8, !tbaa !26
  %25 = getelementptr inbounds nuw %struct.MatroskaMuxContext, ptr %24, i32 0, i32 14
  %26 = getelementptr inbounds nuw %struct.mkv_cues, ptr %25, i32 0, i32 0
  call void @av_freep(ptr noundef %26)
  %27 = load ptr, ptr %3, align 8, !tbaa !26
  %28 = getelementptr inbounds nuw %struct.MatroskaMuxContext, ptr %27, i32 0, i32 12
  call void @av_freep(ptr noundef %28)
  call void @llvm.lifetime.end.p0(i64 8, ptr %3) #16
  ret void
}