; Function Attrs: nounwind uwtable
define internal void @mkv_deinit(ptr noundef readonly captures(none) %0) #0 {
  %2 = getelementptr inbounds nuw i8, ptr %0, i64 24
  %3 = load ptr, ptr %2, align 8, !tbaa !4
  %4 = getelementptr inbounds nuw i8, ptr %3, i64 80
  tail call void @ffio_free_dyn_buf(ptr noundef nonnull %4) #14
  %5 = getelementptr inbounds nuw i8, ptr %3, i64 24
  tail call void @ffio_free_dyn_buf(ptr noundef nonnull %5) #14
  %6 = getelementptr inbounds nuw i8, ptr %3, i64 40
  tail call void @ffio_free_dyn_buf(ptr noundef nonnull %6) #14
  %7 = getelementptr inbounds nuw i8, ptr %3, i64 56
  tail call void @ffio_free_dyn_buf(ptr noundef nonnull %7) #14
  %8 = getelementptr inbounds nuw i8, ptr %3, i64 320
  tail call void @ffio_free_dyn_buf(ptr noundef nonnull %8) #14
  %9 = getelementptr inbounds nuw i8, ptr %3, i64 304
  tail call void @av_freep(ptr noundef nonnull %9) #14
  %10 = getelementptr inbounds nuw i8, ptr %3, i64 256
  tail call void @av_freep(ptr noundef nonnull %10) #14
  %11 = getelementptr inbounds nuw i8, ptr %3, i64 120
  tail call void @av_freep(ptr noundef nonnull %11) #14
  ret void
}